; Function Attrs: mustprogress uwtable
define void @_ZN32pxrInternal_v0_24__pxrReserved__17UsdSchemaRegistry17GetSchemaTypeNameERKNS_6TfTypeE(ptr dead_on_unwind noalias nocapture writable writeonly sret(%"class.pxrInternal_v0_24__pxrReserved__::TfToken") align 8 %0, ptr nocapture noundef nonnull readonly align 8 dereferenceable(8) %1) local_unnamed_addr #0 align 2 personality ptr @__gxx_personality_v0 {
  %3 = tail call noundef ptr @_ZN32pxrInternal_v0_24__pxrReserved__17UsdSchemaRegistry14FindSchemaInfoERKNS_6TfTypeE(ptr noundef nonnull align 8 dereferenceable(8) %1)
  %.not = icmp eq ptr %3, null
  br i1 %.not, label %_ZN32pxrInternal_v0_24__pxrReserved__7TfTokenC2ERKS0_.exit.sink.split, label %4

4:                                                ; preds = %2
  %5 = load i64, ptr %3, align 8
  store i64 %5, ptr %0, align 8
  %6 = and i64 %5, 7
  %.not.i.i = icmp eq i64 %6, 0
  br i1 %.not.i.i, label %_ZN32pxrInternal_v0_24__pxrReserved__7TfTokenC2ERKS0_.exit, label %7

7:                                                ; preds = %4
  %8 = and i64 %5, -8
  %9 = inttoptr i64 %8 to ptr
  %10 = atomicrmw add ptr %9, i32 2 monotonic, align 4
  %11 = and i32 %10, 1
  %.not1.i.i = icmp eq i32 %11, 0
  br i1 %.not1.i.i, label %_ZN32pxrInternal_v0_24__pxrReserved__7TfTokenC2ERKS0_.exit.sink.split, label %_ZN32pxrInternal_v0_24__pxrReserved__7TfTokenC2ERKS0_.exit

_ZN32pxrInternal_v0_24__pxrReserved__7TfTokenC2ERKS0_.exit.sink.split: ; preds = %2, %7
  %.sink = phi ptr [ %9, %7 ], [ null, %2 ]
  store ptr %.sink, ptr %0, align 8
  br label %_ZN32pxrInternal_v0_24__pxrReserved__7TfTokenC2ERKS0_.exit

_ZN32pxrInternal_v0_24__pxrReserved__7TfTokenC2ERKS0_.exit: ; preds = %_ZN32pxrInternal_v0_24__pxrReserved__7TfTokenC2ERKS0_.exit.sink.split, %7, %4
  ret void
}